target datalayout = "e-m:e-p270:32:32-p271:32:32-p272:64:64-i64:64-i128:128-f80:128-n8:16:32:64-S128"
target triple = "x86_64-pc-linux-gnu"

%struct.URLContext = type { ptr, ptr, ptr, ptr, i32, i32, i32, i32, %struct.AVIOInterruptCB, i64, ptr, ptr, i32 }
%struct.AVIOInterruptCB = type { ptr, ptr }
%struct.HLSContext = type { [4096 x i8], i64, i32, i32, i32, ptr, i32, ptr, i32, ptr, i64 }
%struct.variant = type { i32, [4096 x i8] }

@.str.1 = private unnamed_addr constant [5 x i8] c"hls+\00", align 1
@.str.2 = private unnamed_addr constant [7 x i8] c"hls://\00", align 1
@.str.3 = private unnamed_addr constant [58 x i8] c"No nested protocol specified. Specify e.g. hls+http://%s\0A\00", align 1
@.str.4 = private unnamed_addr constant [20 x i8] c"Unsupported url %s\0A\00", align 1
@.str.6 = private unnamed_addr constant [16 x i8] c"Empty playlist\0A\00", align 1

; Function Attrs: nounwind uwtable
define internal void @free_variant_list(ptr noundef %0) #0 {
  %2 = alloca ptr, align 8
  %3 = alloca i32, align 4
  store ptr %0, ptr %2, align 8, !tbaa !19
  call void @llvm.lifetime.start.p0(i64 4, ptr %3) #8
  store i32 0, ptr %3, align 4, !tbaa !11
  br label %4

4:                                                ; preds = %17, %1
  %5 = load i32, ptr %3, align 4, !tbaa !11
  %6 = load ptr, ptr %2, align 8, !tbaa !19
  %7 = getelementptr inbounds nuw %struct.HLSContext, ptr %6, i32 0, i32 6
  %8 = load i32, ptr %7, align 8, !tbaa !27
  %9 = icmp slt i32 %5, %8
  br i1 %9, label %10, label %20

10:                                               ; preds = %4
  %11 = load ptr, ptr %2, align 8, !tbaa !19
  %12 = getelementptr inbounds nuw %struct.HLSContext, ptr %11, i32 0, i32 7
  %13 = load ptr, ptr %12, align 8, !tbaa !28
  %14 = load i32, ptr %3, align 4, !tbaa !11
  %15 = sext i32 %14 to i64
  %16 = getelementptr inbounds ptr, ptr %13, i64 %15
  call void @av_freep(ptr noundef %16)
  br label %17

17:                                               ; preds = %10
  %18 = load i32, ptr %3, align 4, !tbaa !11
  %19 = add nsw i32 %18, 1
  store i32 %19, ptr %3, align 4, !tbaa !11
  br label %4, !llvm.loop !66

20:                                               ; preds = %4
  %21 = load ptr, ptr %2, align 8, !tbaa !19
  %22 = getelementptr inbounds nuw %struct.HLSContext, ptr %21, i32 0, i32 7
  call void @av_freep(ptr noundef %22)
  %23 = load ptr, ptr %2, align 8, !tbaa !19
  %24 = getelementptr inbounds nuw %struct.HLSContext, ptr %23, i32 0, i32 6
  store i32 0, ptr %24, align 8, !tbaa !27
  call void @llvm.lifetime.end.p0(i64 4, ptr %3) #8
  ret void
}

; Function Attrs: nounwind uwtable
define internal void @free_segment_list(ptr noundef %0) #0 {
  %2 = alloca ptr, align 8
  %3 = alloca i32, align 4
  store ptr %0, ptr %2, align 8, !tbaa !19
  call void @llvm.lifetime.start.p0(i64 4, ptr %3) #8
  store i32 0, ptr %3, align 4, !tbaa !11
  br label %4

4:                                                ; preds = %17, %1
  %5 = load i32, ptr %3, align 4, !tbaa !11
  %6 = load ptr, ptr %2, align 8, !tbaa !19
  %7 = getelementptr inbounds nuw %struct.HLSContext, ptr %6, i32 0, i32 4
  %8 = load i32, ptr %7, align 8, !tbaa !22
  %9 = icmp slt i32 %5, %8
  br i1 %9, label %10, label %20

10:                                               ; preds = %4
  %11 = load ptr, ptr %2, align 8, !tbaa !19
  %12 = getelementptr inbounds nuw %struct.HLSContext, ptr %11, i32 0, i32 5
  %13 = load ptr, ptr %12, align 8, !tbaa !39
  %14 = load i32, ptr %3, align 4, !tbaa !11
  %15 = sext i32 %14 to i64
  %16 = getelementptr inbounds ptr, ptr %13, i64 %15
  call void @av_freep(ptr noundef %16)
  br label %17

17:                                               ; preds = %10
  %18 = load i32, ptr %3, align 4, !tbaa !11
  %19 = add nsw i32 %18, 1
  store i32 %19, ptr %3, align 4, !tbaa !11
  br label %4, !llvm.loop !59

20:                                               ; preds = %4
  %21 = load ptr, ptr %2, align 8, !tbaa !19
  %22 = getelementptr inbounds nuw %struct.HLSContext, ptr %21, i32 0, i32 5
  call void @av_freep(ptr noundef %22)
  %23 = load ptr, ptr %2, align 8, !tbaa !19
  %24 = getelementptr inbounds nuw %struct.HLSContext, ptr %23, i32 0, i32 4
  store i32 0, ptr %24, align 8, !tbaa !22
  call void @llvm.lifetime.end.p0(i64 4, ptr %3) #8
  ret void
}

; Function Attrs: nounwind uwtable
define internal i32 @hls_close(ptr noundef %0) #0 {
  %2 = alloca ptr, align 8
  %3 = alloca ptr, align 8
  store ptr %0, ptr %2, align 8, !tbaa !4
  call void @llvm.lifetime.start.p0(i64 8, ptr %3) #8
  %4 = load ptr, ptr %2, align 8, !tbaa !4
  %5 = getelementptr inbounds nuw %struct.URLContext, ptr %4, i32 0, i32 2
  %6 = load ptr, ptr %5, align 8, !tbaa !13
  store ptr %6, ptr %3, align 8, !tbaa !19
  %7 = load ptr, ptr %3, align 8, !tbaa !19
  call void @free_segment_list(ptr noundef %7)
  %8 = load ptr, ptr %3, align 8, !tbaa !19
  call void @free_variant_list(ptr noundef %8)
  %9 = load ptr, ptr %3, align 8, !tbaa !19
  %10 = getelementptr inbounds nuw %struct.HLSContext, ptr %9, i32 0, i32 9
  %11 = call i32 @ffurl_closep(ptr noundef %10)
  call void @llvm.lifetime.end.p0(i64 8, ptr %3) #8
  ret i32 0
}

; Function Attrs: nounwind uwtable
define internal i32 @hls_open(ptr noundef %0, ptr noundef %1, i32 noundef %2) #0 {
  %4 = alloca i32, align 4
  %5 = alloca ptr, align 8
  %6 = alloca ptr, align 8
  %7 = alloca i32, align 4
  %8 = alloca ptr, align 8
  %9 = alloca i32, align 4
  %10 = alloca i32, align 4
  %11 = alloca ptr, align 8
  %12 = alloca i32, align 4
  %13 = alloca i32, align 4
  %14 = alloca i32, align 4
  store ptr %0, ptr %5, align 8, !tbaa !4
  store ptr %1, ptr %6, align 8, !tbaa !9
  store i32 %2, ptr %7, align 4, !tbaa !11
  call void @llvm.lifetime.start.p0(i64 8, ptr %8) #8
  %15 = load ptr, ptr %5, align 8, !tbaa !4
  %16 = getelementptr inbounds nuw %struct.URLContext, ptr %15, i32 0, i32 2
  %17 = load ptr, ptr %16, align 8, !tbaa !13
  store ptr %17, ptr %8, align 8, !tbaa !19
  call void @llvm.lifetime.start.p0(i64 4, ptr %9) #8
  call void @llvm.lifetime.start.p0(i64 4, ptr %10) #8
  call void @llvm.lifetime.start.p0(i64 8, ptr %11) #8
  %18 = load i32, ptr %7, align 4, !tbaa !11
  %19 = and i32 %18, 2
  %20 = icmp ne i32 %19, 0
  br i1 %20, label %21, label %22

21:                                               ; preds = %3
  store i32 -38, ptr %4, align 4
  store i32 1, ptr %12, align 4
  br label %166

22:                                               ; preds = %3
  %23 = load ptr, ptr %5, align 8, !tbaa !4
  %24 = getelementptr inbounds nuw %struct.URLContext, ptr %23, i32 0, i32 6
  store i32 1, ptr %24, align 8, !tbaa !21
  %25 = load ptr, ptr %6, align 8, !tbaa !9
  %26 = call i32 @av_strstart(ptr noundef %25, ptr noundef @.str.1, ptr noundef %11)
  %27 = icmp ne i32 %26, 0
  br i1 %27, label %28, label %34

28:                                               ; preds = %22
  %29 = load ptr, ptr %8, align 8, !tbaa !19
  %30 = getelementptr inbounds nuw %struct.HLSContext, ptr %29, i32 0, i32 0
  %31 = getelementptr inbounds [4096 x i8], ptr %30, i64 0, i64 0
  %32 = load ptr, ptr %11, align 8, !tbaa !9
  %33 = call i64 @av_strlcpy(ptr noundef %31, ptr noundef %32, i64 noundef 4096)
  br label %44

34:                                               ; preds = %22
  %35 = load ptr, ptr %6, align 8, !tbaa !9
  %36 = call i32 @av_strstart(ptr noundef %35, ptr noundef @.str.2, ptr noundef %11)
  %37 = icmp ne i32 %36, 0
  br i1 %37, label %38, label %41

38:                                               ; preds = %34
  %39 = load ptr, ptr %5, align 8, !tbaa !4
  %40 = load ptr, ptr %11, align 8, !tbaa !9
  call void (ptr, i32, ptr, ...) @av_log(ptr noundef %39, i32 noundef 16, ptr noundef @.str.3, ptr noundef %40)
  store i32 -22, ptr %9, align 4, !tbaa !11
  br label %162

41:                                               ; preds = %34
  %42 = load ptr, ptr %5, align 8, !tbaa !4
  %43 = load ptr, ptr %6, align 8, !tbaa !9
  call void (ptr, i32, ptr, ...) @av_log(ptr noundef %42, i32 noundef 16, ptr noundef @.str.4, ptr noundef %43)
  store i32 -22, ptr %9, align 4, !tbaa !11
  br label %162

44:                                               ; preds = %28
  %45 = load ptr, ptr %5, align 8, !tbaa !4
  %46 = load ptr, ptr %8, align 8, !tbaa !19
  %47 = getelementptr inbounds nuw %struct.HLSContext, ptr %46, i32 0, i32 0
  %48 = getelementptr inbounds [4096 x i8], ptr %47, i64 0, i64 0
  call void (ptr, i32, ptr, ...) @av_log(ptr noundef %45, i32 noundef 24, ptr noundef @.str.5, ptr noundef %48)
  %49 = load ptr, ptr %5, align 8, !tbaa !4
  %50 = load ptr, ptr %8, align 8, !tbaa !19
  %51 = getelementptr inbounds nuw %struct.HLSContext, ptr %50, i32 0, i32 0
  %52 = getelementptr inbounds [4096 x i8], ptr %51, i64 0, i64 0
  %53 = call i32 @parse_playlist(ptr noundef %49, ptr noundef %52)
  store i32 %53, ptr %9, align 4, !tbaa !11
  %54 = icmp slt i32 %53, 0
  br i1 %54, label %55, label %56

55:                                               ; preds = %44
  br label %162

56:                                               ; preds = %44
  %57 = load ptr, ptr %8, align 8, !tbaa !19
  %58 = getelementptr inbounds nuw %struct.HLSContext, ptr %57, i32 0, i32 4
  %59 = load i32, ptr %58, align 8, !tbaa !22
  %60 = icmp eq i32 %59, 0
  br i1 %60, label %61, label %128

61:                                               ; preds = %56
  %62 = load ptr, ptr %8, align 8, !tbaa !19
  %63 = getelementptr inbounds nuw %struct.HLSContext, ptr %62, i32 0, i32 6
  %64 = load i32, ptr %63, align 8, !tbaa !27
  %65 = icmp sgt i32 %64, 0
  br i1 %65, label %66, label %128

66:                                               ; preds = %61
  call void @llvm.lifetime.start.p0(i64 4, ptr %13) #8
  store i32 0, ptr %13, align 4, !tbaa !11
  call void @llvm.lifetime.start.p0(i64 4, ptr %14) #8
  store i32 -1, ptr %14, align 4, !tbaa !11
  store i32 0, ptr %10, align 4, !tbaa !11
  br label %67

67:                                               ; preds = %100, %66
  %68 = load i32, ptr %10, align 4, !tbaa !11
  %69 = load ptr, ptr %8, align 8, !tbaa !19
  %70 = getelementptr inbounds nuw %struct.HLSContext, ptr %69, i32 0, i32 6
  %71 = load i32, ptr %70, align 8, !tbaa !27
  %72 = icmp slt i32 %68, %71
  br i1 %72, label %73, label %103

73:                                               ; preds = %67
  %74 = load ptr, ptr %8, align 8, !tbaa !19
  %75 = getelementptr inbounds nuw %struct.HLSContext, ptr %74, i32 0, i32 7
  %76 = load ptr, ptr %75, align 8, !tbaa !28
  %77 = load i32, ptr %10, align 4, !tbaa !11
  %78 = sext i32 %77 to i64
  %79 = getelementptr inbounds ptr, ptr %76, i64 %78
  %80 = load ptr, ptr %79, align 8, !tbaa !29
  %81 = getelementptr inbounds nuw %struct.variant, ptr %80, i32 0, i32 0
  %82 = load i32, ptr %81, align 4, !tbaa !31
  %83 = load i32, ptr %13, align 4, !tbaa !11
  %84 = icmp sgt i32 %82, %83
  br i1 %84, label %88, label %85

85:                                               ; preds = %73
  %86 = load i32, ptr %10, align 4, !tbaa !11
  %87 = icmp eq i32 %86, 0
  br i1 %87, label %88, label %99

88:                                               ; preds = %85, %73
  %89 = load ptr, ptr %8, align 8, !tbaa !19
  %90 = getelementptr inbounds nuw %struct.HLSContext, ptr %89, i32 0, i32 7
  %91 = load ptr, ptr %90, align 8, !tbaa !28
  %92 = load i32, ptr %10, align 4, !tbaa !11
  %93 = sext i32 %92 to i64
  %94 = getelementptr inbounds ptr, ptr %91, i64 %93
  %95 = load ptr, ptr %94, align 8, !tbaa !29
  %96 = getelementptr inbounds nuw %struct.variant, ptr %95, i32 0, i32 0
  %97 = load i32, ptr %96, align 4, !tbaa !31
  store i32 %97, ptr %13, align 4, !tbaa !11
  %98 = load i32, ptr %10, align 4, !tbaa !11
  store i32 %98, ptr %14, align 4, !tbaa !11
  br label %99

99:                                               ; preds = %88, %85
  br label %100

100:                                              ; preds = %99
  %101 = load i32, ptr %10, align 4, !tbaa !11
  %102 = add nsw i32 %101, 1
  store i32 %102, ptr %10, align 4, !tbaa !11
  br label %67, !llvm.loop !33

103:                                              ; preds = %67
  %104 = load ptr, ptr %8, align 8, !tbaa !19
  %105 = getelementptr inbounds nuw %struct.HLSContext, ptr %104, i32 0, i32 0
  %106 = getelementptr inbounds [4096 x i8], ptr %105, i64 0, i64 0
  %107 = load ptr, ptr %8, align 8, !tbaa !19
  %108 = getelementptr inbounds nuw %struct.HLSContext, ptr %107, i32 0, i32 7
  %109 = load ptr, ptr %108, align 8, !tbaa !28
  %110 = load i32, ptr %14, align 4, !tbaa !11
  %111 = sext i32 %110 to i64
  %112 = getelementptr inbounds ptr, ptr %109, i64 %111
  %113 = load ptr, ptr %112, align 8, !tbaa !29
  %114 = getelementptr inbounds nuw %struct.variant, ptr %113, i32 0, i32 1
  %115 = getelementptr inbounds [4096 x i8], ptr %114, i64 0, i64 0
  %116 = call i64 @av_strlcpy(ptr noundef %106, ptr noundef %115, i64 noundef 4096)
  %117 = load ptr, ptr %5, align 8, !tbaa !4
  %118 = load ptr, ptr %8, align 8, !tbaa !19
  %119 = getelementptr inbounds nuw %struct.HLSContext, ptr %118, i32 0, i32 0
  %120 = getelementptr inbounds [4096 x i8], ptr %119, i64 0, i64 0
  %121 = call i32 @parse_playlist(ptr noundef %117, ptr noundef %120)
  store i32 %121, ptr %9, align 4, !tbaa !11
  %122 = icmp slt i32 %121, 0
  br i1 %122, label %123, label %124

123:                                              ; preds = %103
  store i32 2, ptr %12, align 4
  br label %125

124:                                              ; preds = %103
  store i32 0, ptr %12, align 4
  br label %125

125:                                              ; preds = %123, %124
  call void @llvm.lifetime.end.p0(i64 4, ptr %14) #8
  call void @llvm.lifetime.end.p0(i64 4, ptr %13) #8
  %126 = load i32, ptr %12, align 4
  switch i32 %126, label %166 [
    i32 0, label %127
    i32 2, label %162
  ]

127:                                              ; preds = %125
  br label %128

128:                                              ; preds = %127, %61, %56
  %129 = load ptr, ptr %8, align 8, !tbaa !19
  %130 = getelementptr inbounds nuw %struct.HLSContext, ptr %129, i32 0, i32 4
  %131 = load i32, ptr %130, align 8, !tbaa !22
  %132 = icmp eq i32 %131, 0
  br i1 %132, label %133, label %135

133:                                              ; preds = %128
  %134 = load ptr, ptr %5, align 8, !tbaa !4
  call void (ptr, i32, ptr, ...) @av_log(ptr noundef %134, i32 noundef 24, ptr noundef @.str.6)
  store i32 -5, ptr %9, align 4, !tbaa !11
  br label %162

135:                                              ; preds = %128
  %136 = load ptr, ptr %8, align 8, !tbaa !19
  %137 = getelementptr inbounds nuw %struct.HLSContext, ptr %136, i32 0, i32 2
  %138 = load i32, ptr %137, align 8, !tbaa !35
  %139 = load ptr, ptr %8, align 8, !tbaa !19
  %140 = getelementptr inbounds nuw %struct.HLSContext, ptr %139, i32 0, i32 8
  store i32 %138, ptr %140, align 8, !tbaa !36
  %141 = load ptr, ptr %8, align 8, !tbaa !19
  %142 = getelementptr inbounds nuw %struct.HLSContext, ptr %141, i32 0, i32 3
  %143 = load i32, ptr %142, align 4, !tbaa !37
  %144 = icmp ne i32 %143, 0
  br i1 %144, label %161, label %145

145:                                              ; preds = %135
  %146 = load ptr, ptr %8, align 8, !tbaa !19
  %147 = getelementptr inbounds nuw %struct.HLSContext, ptr %146, i32 0, i32 4
  %148 = load i32, ptr %147, align 8, !tbaa !22
  %149 = icmp sge i32 %148, 3
  br i1 %149, label %150, label %161

150:                                              ; preds = %145
  %151 = load ptr, ptr %8, align 8, !tbaa !19
  %152 = getelementptr inbounds nuw %struct.HLSContext, ptr %151, i32 0, i32 2
  %153 = load i32, ptr %152, align 8, !tbaa !35
  %154 = load ptr, ptr %8, align 8, !tbaa !19
  %155 = getelementptr inbounds nuw %struct.HLSContext, ptr %154, i32 0, i32 4
  %156 = load i32, ptr %155, align 8, !tbaa !22
  %157 = add nsw i32 %153, %156
  %158 = sub nsw i32 %157, 3
  %159 = load ptr, ptr %8, align 8, !tbaa !19
  %160 = getelementptr inbounds nuw %struct.HLSContext, ptr %159, i32 0, i32 8
  store i32 %158, ptr %160, align 8, !tbaa !36
  br label %161

161:                                              ; preds = %150, %145, %135
  store i32 0, ptr %4, align 4
  store i32 1, ptr %12, align 4
  br label %166

162:                                              ; preds = %125, %133, %55, %41, %38
  %163 = load ptr, ptr %5, align 8, !tbaa !4
  %164 = call i32 @hls_close(ptr noundef %163)
  %165 = load i32, ptr %9, align 4, !tbaa !11
  store i32 %165, ptr %4, align 4
  store i32 1, ptr %12, align 4
  br label %166

166:                                              ; preds = %162, %161, %125, %21
  call void @llvm.lifetime.end.p0(i64 8, ptr %11) #8
  call void @llvm.lifetime.end.p0(i64 4, ptr %10) #8
  call void @llvm.lifetime.end.p0(i64 4, ptr %9) #8
  call void @llvm.lifetime.end.p0(i64 8, ptr %8) #8
  %167 = load i32, ptr %4, align 4
  ret i32 %167
}