; Function Attrs: nounwind uwtable
define internal range(i32 -2147483648, 1) i32 @hls_open(ptr noundef %0, ptr noundef %1, i32 noundef %2) #0 {
  %4 = alloca ptr, align 8
  %5 = getelementptr inbounds nuw i8, ptr %0, i64 16
  %6 = load ptr, ptr %5, align 8, !tbaa !4
  call void @llvm.lifetime.start.p0(i64 8, ptr nonnull %4) #7
  %7 = and i32 %2, 2
  %.not = icmp eq i32 %7, 0
  br i1 %.not, label %8, label %84

8:                                                ; preds = %3
  %9 = getelementptr inbounds nuw i8, ptr %0, i64 40
  store i32 1, ptr %9, align 8, !tbaa !15
  %10 = call i32 @av_strstart(ptr noundef %1, ptr noundef nonnull @.str.1, ptr noundef nonnull %4) #7
  %.not51 = icmp eq i32 %10, 0
  br i1 %.not51, label %16, label %11

11:                                               ; preds = %8
  %12 = load ptr, ptr %4, align 8, !tbaa !16
  %13 = call i64 @av_strlcpy(ptr noundef %6, ptr noundef %12, i64 noundef 4096) #7
  call void (ptr, i32, ptr, ...) @av_log(ptr noundef nonnull %0, i32 noundef 24, ptr noundef nonnull @.str.5, ptr noundef %6) #7
  %14 = call fastcc i32 @parse_playlist(ptr noundef nonnull %0, ptr noundef %6)
  %15 = icmp slt i32 %14, 0
  br i1 %15, label %58, label %21

16:                                               ; preds = %8
  %17 = call i32 @av_strstart(ptr noundef %1, ptr noundef nonnull @.str.2, ptr noundef nonnull %4) #7
  %.not52 = icmp eq i32 %17, 0
  br i1 %.not52, label %20, label %18

18:                                               ; preds = %16
  %19 = load ptr, ptr %4, align 8, !tbaa !16
  call void (ptr, i32, ptr, ...) @av_log(ptr noundef nonnull %0, i32 noundef 16, ptr noundef nonnull @.str.3, ptr noundef %19) #7
  br label %58

20:                                               ; preds = %16
  call void (ptr, i32, ptr, ...) @av_log(ptr noundef nonnull %0, i32 noundef 16, ptr noundef nonnull @.str.4, ptr noundef %1) #7
  br label %58

21:                                               ; preds = %11
  %22 = getelementptr inbounds nuw i8, ptr %6, i64 4112
  %23 = load i32, ptr %22, align 8, !tbaa !17
  %24 = icmp eq i32 %23, 0
  br i1 %24, label %25, label %.thread

25:                                               ; preds = %21
  %26 = getelementptr inbounds nuw i8, ptr %6, i64 4128
  %27 = load i32, ptr %26, align 8, !tbaa !23
  %28 = icmp sgt i32 %27, 0
  br i1 %28, label %.preheader, label %.thread61

.preheader:                                       ; preds = %25
  %29 = getelementptr inbounds nuw i8, ptr %6, i64 4136
  %30 = load ptr, ptr %29, align 8, !tbaa !24
  %wide.trip.count = zext nneg i32 %27 to i64
  br label %31

31:                                               ; preds = %.preheader, %31
  %indvars.iv = phi i64 [ 0, %.preheader ], [ %indvars.iv.next, %31 ]
  %.058 = phi i32 [ -1, %.preheader ], [ %spec.select54, %31 ]
  %.04357 = phi i32 [ 0, %.preheader ], [ %spec.select, %31 ]
  %32 = getelementptr inbounds nuw ptr, ptr %30, i64 %indvars.iv
  %33 = load ptr, ptr %32, align 8, !tbaa !25
  %34 = load i32, ptr %33, align 4, !tbaa !27
  %35 = icmp sgt i32 %34, %.04357
  %36 = icmp eq i64 %indvars.iv, 0
  %or.cond = or i1 %36, %35
  %spec.select = select i1 %or.cond, i32 %34, i32 %.04357
  %37 = trunc nuw nsw i64 %indvars.iv to i32
  %spec.select54 = select i1 %or.cond, i32 %37, i32 %.058
  %indvars.iv.next = add nuw nsw i64 %indvars.iv, 1
  %exitcond.not = icmp eq i64 %indvars.iv.next, %wide.trip.count
  br i1 %exitcond.not, label %38, label %31, !llvm.loop !29

38:                                               ; preds = %31
  %39 = sext i32 %spec.select54 to i64
  %40 = getelementptr inbounds ptr, ptr %30, i64 %39
  %41 = load ptr, ptr %40, align 8, !tbaa !25
  %42 = getelementptr inbounds nuw i8, ptr %41, i64 4
  %43 = call i64 @av_strlcpy(ptr noundef nonnull %6, ptr noundef nonnull %42, i64 noundef 4096) #7
  %44 = call fastcc i32 @parse_playlist(ptr noundef nonnull %0, ptr noundef nonnull %6)
  %45 = icmp slt i32 %44, 0
  br i1 %45, label %58, label %46

46:                                               ; preds = %38
  %.pr.pre = load i32, ptr %22, align 8, !tbaa !17
  %47 = icmp eq i32 %.pr.pre, 0
  br i1 %47, label %.thread61, label %.thread

.thread61:                                        ; preds = %25, %46
  call void (ptr, i32, ptr, ...) @av_log(ptr noundef nonnull %0, i32 noundef 24, ptr noundef nonnull @.str.6) #7
  br label %58

.thread:                                          ; preds = %21, %46
  %48 = phi i32 [ %.pr.pre, %46 ], [ %23, %21 ]
  %49 = getelementptr inbounds nuw i8, ptr %6, i64 4104
  %50 = load i32, ptr %49, align 8, !tbaa !31
  %51 = getelementptr inbounds nuw i8, ptr %6, i64 4144
  store i32 %50, ptr %51, align 8, !tbaa !32
  %52 = getelementptr inbounds nuw i8, ptr %6, i64 4108
  %53 = load i32, ptr %52, align 4, !tbaa !33
  %.not53 = icmp eq i32 %53, 0
  %54 = icmp sgt i32 %48, 2
  %or.cond55 = and i1 %54, %.not53
  br i1 %or.cond55, label %55, label %84

55:                                               ; preds = %.thread
  %56 = add nsw i32 %48, -3
  %57 = add i32 %56, %50
  store i32 %57, ptr %51, align 8, !tbaa !32
  br label %84

58:                                               ; preds = %38, %11, %.thread61, %20, %18
  %.047 = phi i32 [ %14, %11 ], [ %44, %38 ], [ -5, %.thread61 ], [ -22, %18 ], [ -22, %20 ]
  %59 = load ptr, ptr %5, align 8, !tbaa !4
  %60 = getelementptr inbounds nuw i8, ptr %59, i64 4112
  %61 = load i32, ptr %60, align 8, !tbaa !17
  %62 = icmp sgt i32 %61, 0
  br i1 %62, label %.lr.ph.i.i, label %free_segment_list.exit.i

.lr.ph.i.i:                                       ; preds = %58
  %63 = getelementptr inbounds nuw i8, ptr %59, i64 4120
  br label %64

64:                                               ; preds = %64, %.lr.ph.i.i
  %indvars.iv.i.i = phi i64 [ 0, %.lr.ph.i.i ], [ %indvars.iv.next.i.i, %64 ]
  %65 = load ptr, ptr %63, align 8, !tbaa !34
  %66 = getelementptr inbounds nuw ptr, ptr %65, i64 %indvars.iv.i.i
  call void @av_freep(ptr noundef %66) #7
  %indvars.iv.next.i.i = add nuw nsw i64 %indvars.iv.i.i, 1
  %67 = load i32, ptr %60, align 8, !tbaa !17
  %68 = sext i32 %67 to i64
  %69 = icmp slt i64 %indvars.iv.next.i.i, %68
  br i1 %69, label %64, label %free_segment_list.exit.i, !llvm.loop !35

free_segment_list.exit.i:                         ; preds = %64, %58
  %70 = getelementptr inbounds nuw i8, ptr %59, i64 4120
  call void @av_freep(ptr noundef nonnull %70) #7
  store i32 0, ptr %60, align 8, !tbaa !17
  %71 = getelementptr inbounds nuw i8, ptr %59, i64 4128
  %72 = load i32, ptr %71, align 8, !tbaa !23
  %73 = icmp sgt i32 %72, 0
  br i1 %73, label %.lr.ph.i4.i, label %hls_close.exit

.lr.ph.i4.i:                                      ; preds = %free_segment_list.exit.i
  %74 = getelementptr inbounds nuw i8, ptr %59, i64 4136
  br label %75

75:                                               ; preds = %75, %.lr.ph.i4.i
  %indvars.iv.i5.i = phi i64 [ 0, %.lr.ph.i4.i ], [ %indvars.iv.next.i6.i, %75 ]
  %76 = load ptr, ptr %74, align 8, !tbaa !24
  %77 = getelementptr inbounds nuw ptr, ptr %76, i64 %indvars.iv.i5.i
  call void @av_freep(ptr noundef %77) #7
  %indvars.iv.next.i6.i = add nuw nsw i64 %indvars.iv.i5.i, 1
  %78 = load i32, ptr %71, align 8, !tbaa !23
  %79 = sext i32 %78 to i64
  %80 = icmp slt i64 %indvars.iv.next.i6.i, %79
  br i1 %80, label %75, label %hls_close.exit, !llvm.loop !36

hls_close.exit:                                   ; preds = %75, %free_segment_list.exit.i
  %81 = getelementptr inbounds nuw i8, ptr %59, i64 4136
  call void @av_freep(ptr noundef nonnull %81) #7
  store i32 0, ptr %71, align 8, !tbaa !23
  %82 = getelementptr inbounds nuw i8, ptr %59, i64 4152
  %83 = call i32 @ffurl_closep(ptr noundef nonnull %82) #7
  br label %84

84:                                               ; preds = %.thread, %55, %3, %hls_close.exit
  %.048 = phi i32 [ %.047, %hls_close.exit ], [ -38, %3 ], [ 0, %55 ], [ 0, %.thread ]
  call void @llvm.lifetime.end.p0(i64 8, ptr nonnull %4) #7
  ret i32 %.048
}